target datalayout = "e-m:e-p270:32:32-p271:32:32-p272:64:64-i64:64-i128:128-f80:128-n8:16:32:64-S128"
target triple = "x86_64-pc-linux-gnu"

%struct.kmac_data_st = type { ptr, ptr, %struct.PROV_DIGEST, i64, i64, i64, i32, [672 x i8], [516 x i8] }
%struct.PROV_DIGEST = type { ptr, ptr, ptr }
%struct.ossl_param_st = type { ptr, i32, ptr, i64, i64 }

@.str.2 = private unnamed_addr constant [54 x i8] c"../openssl/providers/implementations/macs/kmac_prov.c\00", align 1
@__func__.kmac_init = private unnamed_addr constant [10 x i8] c"kmac_init\00", align 1
@__const.kmac_init.cparams = private unnamed_addr constant [2 x { ptr, i32, [4 x i8], ptr, i64, i64 }] [{ ptr, i32, [4 x i8], ptr, i64, i64 } { ptr @.str.3, i32 5, [4 x i8] zeroinitializer, ptr @.str.4, i64 0, i64 -1 }, { ptr, i32, [4 x i8], ptr, i64, i64 } zeroinitializer], align 16
@kmac_string = internal constant [6 x i8] c"\01 KMAC", align 1
@__func__.bytepad = private unnamed_addr constant [8 x i8] c"bytepad\00", align 1

; Function Attrs: nounwind uwtable
define internal i32 @bytepad(ptr noundef %0, ptr noundef %1, ptr noundef %2, i64 noundef %3, ptr noundef %4, i64 noundef %5, i64 noundef %6) #0 {
  %8 = alloca i32, align 4
  %9 = alloca ptr, align 8
  %10 = alloca ptr, align 8
  %11 = alloca ptr, align 8
  %12 = alloca i64, align 8
  %13 = alloca ptr, align 8
  %14 = alloca i64, align 8
  %15 = alloca i64, align 8
  %16 = alloca i32, align 4
  %17 = alloca ptr, align 8
  %18 = alloca i32, align 4
  %19 = alloca i32, align 4
  store ptr %0, ptr %9, align 8, !tbaa !22
  store ptr %1, ptr %10, align 8, !tbaa !29
  store ptr %2, ptr %11, align 8, !tbaa !22
  store i64 %3, ptr %12, align 8, !tbaa !24
  store ptr %4, ptr %13, align 8, !tbaa !22
  store i64 %5, ptr %14, align 8, !tbaa !24
  store i64 %6, ptr %15, align 8, !tbaa !24
  call void @llvm.lifetime.start.p0(i64 4, ptr %16) #7
  call void @llvm.lifetime.start.p0(i64 8, ptr %17) #7
  %20 = load ptr, ptr %9, align 8, !tbaa !22
  store ptr %20, ptr %17, align 8, !tbaa !22
  call void @llvm.lifetime.start.p0(i64 4, ptr %18) #7
  %21 = load i64, ptr %15, align 8, !tbaa !24
  %22 = trunc i64 %21 to i32
  store i32 %22, ptr %18, align 4, !tbaa !28
  %23 = load ptr, ptr %9, align 8, !tbaa !22
  %24 = icmp eq ptr %23, null
  br i1 %24, label %25, label %51

25:                                               ; preds = %7
  %26 = load ptr, ptr %10, align 8, !tbaa !29
  %27 = icmp eq ptr %26, null
  br i1 %27, label %28, label %29

28:                                               ; preds = %25
  call void @ERR_new()
  call void @ERR_set_debug(ptr noundef @.str.2, i32 noundef 608, ptr noundef @__func__.bytepad)
  call void (i32, i32, ptr, ...) @ERR_set_error(i32 noundef 57, i32 noundef 786690, ptr noundef null)
  store i32 0, ptr %8, align 4
  store i32 1, ptr %19, align 4
  br label %122

29:                                               ; preds = %25
  %30 = load i64, ptr %12, align 8, !tbaa !24
  %31 = add i64 2, %30
  %32 = load ptr, ptr %13, align 8, !tbaa !22
  %33 = icmp ne ptr %32, null
  br i1 %33, label %34, label %36

34:                                               ; preds = %29
  %35 = load i64, ptr %14, align 8, !tbaa !24
  br label %37

36:                                               ; preds = %29
  br label %37

37:                                               ; preds = %36, %34
  %38 = phi i64 [ %35, %34 ], [ 0, %36 ]
  %39 = add i64 %31, %38
  %40 = trunc i64 %39 to i32
  store i32 %40, ptr %18, align 4, !tbaa !28
  %41 = load i32, ptr %18, align 4, !tbaa !28
  %42 = sext i32 %41 to i64
  %43 = load i64, ptr %15, align 8, !tbaa !24
  %44 = add i64 %42, %43
  %45 = sub i64 %44, 1
  %46 = load i64, ptr %15, align 8, !tbaa !24
  %47 = udiv i64 %45, %46
  %48 = load i64, ptr %15, align 8, !tbaa !24
  %49 = mul i64 %47, %48
  %50 = load ptr, ptr %10, align 8, !tbaa !29
  store i64 %49, ptr %50, align 8, !tbaa !24
  store i32 1, ptr %8, align 4
  store i32 1, ptr %19, align 4
  br label %122

51:                                               ; preds = %7
  %52 = load i64, ptr %15, align 8, !tbaa !24
  %53 = icmp ule i64 %52, 255
  %54 = zext i1 %53 to i32
  %55 = icmp ne i32 %54, 0
  %56 = xor i1 %55, true
  %57 = xor i1 %56, true
  %58 = zext i1 %57 to i32
  %59 = sext i32 %58 to i64
  %60 = call i64 @llvm.expect.i64(i64 %59, i64 1)
  %61 = icmp ne i64 %60, 0
  br i1 %61, label %63, label %62

62:                                               ; preds = %51
  store i32 0, ptr %8, align 4
  store i32 1, ptr %19, align 4
  br label %122

63:                                               ; preds = %51
  %64 = load ptr, ptr %17, align 8, !tbaa !22
  %65 = getelementptr inbounds nuw i8, ptr %64, i32 1
  store ptr %65, ptr %17, align 8, !tbaa !22
  store i8 1, ptr %64, align 1, !tbaa !35
  %66 = load i64, ptr %15, align 8, !tbaa !24
  %67 = trunc i64 %66 to i8
  %68 = load ptr, ptr %17, align 8, !tbaa !22
  %69 = getelementptr inbounds nuw i8, ptr %68, i32 1
  store ptr %69, ptr %17, align 8, !tbaa !22
  store i8 %67, ptr %68, align 1, !tbaa !35
  %70 = load ptr, ptr %17, align 8, !tbaa !22
  %71 = load ptr, ptr %11, align 8, !tbaa !22
  %72 = load i64, ptr %12, align 8, !tbaa !24
  call void @llvm.memcpy.p0.p0.i64(ptr align 1 %70, ptr align 1 %71, i64 %72, i1 false)
  %73 = load i64, ptr %12, align 8, !tbaa !24
  %74 = load ptr, ptr %17, align 8, !tbaa !22
  %75 = getelementptr inbounds nuw i8, ptr %74, i64 %73
  store ptr %75, ptr %17, align 8, !tbaa !22
  %76 = load ptr, ptr %13, align 8, !tbaa !22
  %77 = icmp ne ptr %76, null
  br i1 %77, label %78, label %88

78:                                               ; preds = %63
  %79 = load i64, ptr %14, align 8, !tbaa !24
  %80 = icmp ugt i64 %79, 0
  br i1 %80, label %81, label %88

81:                                               ; preds = %78
  %82 = load ptr, ptr %17, align 8, !tbaa !22
  %83 = load ptr, ptr %13, align 8, !tbaa !22
  %84 = load i64, ptr %14, align 8, !tbaa !24
  call void @llvm.memcpy.p0.p0.i64(ptr align 1 %82, ptr align 1 %83, i64 %84, i1 false)
  %85 = load i64, ptr %14, align 8, !tbaa !24
  %86 = load ptr, ptr %17, align 8, !tbaa !22
  %87 = getelementptr inbounds nuw i8, ptr %86, i64 %85
  store ptr %87, ptr %17, align 8, !tbaa !22
  br label %88

88:                                               ; preds = %81, %78, %63
  %89 = load ptr, ptr %17, align 8, !tbaa !22
  %90 = load ptr, ptr %9, align 8, !tbaa !22
  %91 = ptrtoint ptr %89 to i64
  %92 = ptrtoint ptr %90 to i64
  %93 = sub i64 %91, %92
  %94 = trunc i64 %93 to i32
  store i32 %94, ptr %16, align 4, !tbaa !28
  %95 = load i32, ptr %16, align 4, !tbaa !28
  %96 = sext i32 %95 to i64
  %97 = load i64, ptr %15, align 8, !tbaa !24
  %98 = add i64 %96, %97
  %99 = sub i64 %98, 1
  %100 = load i64, ptr %15, align 8, !tbaa !24
  %101 = udiv i64 %99, %100
  %102 = load i64, ptr %15, align 8, !tbaa !24
  %103 = mul i64 %101, %102
  %104 = trunc i64 %103 to i32
  store i32 %104, ptr %18, align 4, !tbaa !28
  %105 = load i32, ptr %18, align 4, !tbaa !28
  %106 = load i32, ptr %16, align 4, !tbaa !28
  %107 = icmp ne i32 %105, %106
  br i1 %107, label %108, label %114

108:                                              ; preds = %88
  %109 = load ptr, ptr %17, align 8, !tbaa !22
  %110 = load i32, ptr %18, align 4, !tbaa !28
  %111 = load i32, ptr %16, align 4, !tbaa !28
  %112 = sub nsw i32 %110, %111
  %113 = sext i32 %112 to i64
  call void @llvm.memset.p0.i64(ptr align 1 %109, i8 0, i64 %113, i1 false)
  br label %114

114:                                              ; preds = %108, %88
  %115 = load ptr, ptr %10, align 8, !tbaa !29
  %116 = icmp ne ptr %115, null
  br i1 %116, label %117, label %121

117:                                              ; preds = %114
  %118 = load i32, ptr %18, align 4, !tbaa !28
  %119 = sext i32 %118 to i64
  %120 = load ptr, ptr %10, align 8, !tbaa !29
  store i64 %119, ptr %120, align 8, !tbaa !24
  br label %121

121:                                              ; preds = %117, %114
  store i32 1, ptr %8, align 4
  store i32 1, ptr %19, align 4
  br label %122

122:                                              ; preds = %121, %62, %37, %28
  call void @llvm.lifetime.end.p0(i64 4, ptr %18) #7
  call void @llvm.lifetime.end.p0(i64 8, ptr %17) #7
  call void @llvm.lifetime.end.p0(i64 4, ptr %16) #7
  %123 = load i32, ptr %8, align 4
  ret i32 %123
}

; Function Attrs: nounwind uwtable
define internal i32 @kmac_init(ptr noundef %0, ptr noundef %1, i64 noundef %2, ptr noundef %3) #0 {
  %5 = alloca i32, align 4
  %6 = alloca ptr, align 8
  %7 = alloca ptr, align 8
  %8 = alloca i64, align 8
  %9 = alloca ptr, align 8
  %10 = alloca ptr, align 8
  %11 = alloca ptr, align 8
  %12 = alloca ptr, align 8
  %13 = alloca i64, align 8
  %14 = alloca i64, align 8
  %15 = alloca i32, align 4
  %16 = alloca i32, align 4
  %17 = alloca i32, align 4
  %18 = alloca [2 x %struct.ossl_param_st], align 16
  store ptr %0, ptr %6, align 8, !tbaa !3
  store ptr %1, ptr %7, align 8, !tbaa !22
  store i64 %2, ptr %8, align 8, !tbaa !24
  store ptr %3, ptr %9, align 8, !tbaa !25
  call void @llvm.lifetime.start.p0(i64 8, ptr %10) #7
  %19 = load ptr, ptr %6, align 8, !tbaa !3
  store ptr %19, ptr %10, align 8, !tbaa !7
  call void @llvm.lifetime.start.p0(i64 8, ptr %11) #7
  %20 = load ptr, ptr %10, align 8, !tbaa !7
  %21 = getelementptr inbounds nuw %struct.kmac_data_st, ptr %20, i32 0, i32 1
  %22 = load ptr, ptr %21, align 8, !tbaa !17
  store ptr %22, ptr %11, align 8, !tbaa !27
  call void @llvm.lifetime.start.p0(i64 8, ptr %12) #7
  call void @llvm.lifetime.start.p0(i64 8, ptr %13) #7
  call void @llvm.lifetime.start.p0(i64 8, ptr %14) #7
  call void @llvm.lifetime.start.p0(i64 4, ptr %15) #7
  call void @llvm.lifetime.start.p0(i64 4, ptr %16) #7
  %23 = call i32 @ossl_prov_is_running()
  %24 = icmp ne i32 %23, 0
  br i1 %24, label %25, label %30

25:                                               ; preds = %4
  %26 = load ptr, ptr %10, align 8, !tbaa !7
  %27 = load ptr, ptr %9, align 8, !tbaa !25
  %28 = call i32 @kmac_set_ctx_params(ptr noundef %26, ptr noundef %27)
  %29 = icmp ne i32 %28, 0
  br i1 %29, label %31, label %30

30:                                               ; preds = %25, %4
  store i32 0, ptr %5, align 4
  store i32 1, ptr %17, align 4
  br label %127

31:                                               ; preds = %25
  %32 = load ptr, ptr %7, align 8, !tbaa !22
  %33 = icmp ne ptr %32, null
  br i1 %33, label %34, label %42

34:                                               ; preds = %31
  %35 = load ptr, ptr %10, align 8, !tbaa !7
  %36 = load ptr, ptr %7, align 8, !tbaa !22
  %37 = load i64, ptr %8, align 8, !tbaa !24
  %38 = call i32 @kmac_setkey(ptr noundef %35, ptr noundef %36, i64 noundef %37)
  %39 = icmp ne i32 %38, 0
  br i1 %39, label %41, label %40

40:                                               ; preds = %34
  store i32 0, ptr %5, align 4
  store i32 1, ptr %17, align 4
  br label %127

41:                                               ; preds = %34
  br label %49

42:                                               ; preds = %31
  %43 = load ptr, ptr %10, align 8, !tbaa !7
  %44 = getelementptr inbounds nuw %struct.kmac_data_st, ptr %43, i32 0, i32 4
  %45 = load i64, ptr %44, align 8, !tbaa !19
  %46 = icmp eq i64 %45, 0
  br i1 %46, label %47, label %48

47:                                               ; preds = %42
  call void @ERR_new()
  call void @ERR_set_debug(ptr noundef @.str.2, i32 noundef 323, ptr noundef @__func__.kmac_init)
  call void (i32, i32, ptr, ...) @ERR_set_error(i32 noundef 57, i32 noundef 114, ptr noundef null)
  store i32 0, ptr %5, align 4
  store i32 1, ptr %17, align 4
  br label %127

48:                                               ; preds = %42
  br label %49

49:                                               ; preds = %48, %41
  %50 = load ptr, ptr %10, align 8, !tbaa !7
  %51 = getelementptr inbounds nuw %struct.kmac_data_st, ptr %50, i32 0, i32 1
  %52 = load ptr, ptr %51, align 8, !tbaa !17
  %53 = load ptr, ptr %10, align 8, !tbaa !7
  %54 = getelementptr inbounds nuw %struct.kmac_data_st, ptr %53, i32 0, i32 2
  %55 = call ptr @ossl_prov_digest_md(ptr noundef %54)
  %56 = call i32 @EVP_DigestInit_ex(ptr noundef %52, ptr noundef %55, ptr noundef null)
  %57 = icmp ne i32 %56, 0
  br i1 %57, label %59, label %58

58:                                               ; preds = %49
  store i32 0, ptr %5, align 4
  store i32 1, ptr %17, align 4
  br label %127

59:                                               ; preds = %49
  %60 = load ptr, ptr %10, align 8, !tbaa !7
  %61 = getelementptr inbounds nuw %struct.kmac_data_st, ptr %60, i32 0, i32 2
  %62 = call ptr @ossl_prov_digest_md(ptr noundef %61)
  %63 = call i32 @EVP_MD_get_block_size(ptr noundef %62)
  store i32 %63, ptr %16, align 4, !tbaa !28
  %64 = load i32, ptr %16, align 4, !tbaa !28
  %65 = icmp sle i32 %64, 0
  br i1 %65, label %66, label %67

66:                                               ; preds = %59
  call void @ERR_new()
  call void @ERR_set_debug(ptr noundef @.str.2, i32 noundef 332, ptr noundef @__func__.kmac_init)
  call void (i32, i32, ptr, ...) @ERR_set_error(i32 noundef 57, i32 noundef 166, ptr noundef null)
  store i32 0, ptr %5, align 4
  store i32 1, ptr %17, align 4
  br label %127

67:                                               ; preds = %59
  %68 = load i32, ptr %16, align 4, !tbaa !28
  %69 = sext i32 %68 to i64
  store i64 %69, ptr %14, align 8, !tbaa !24
  %70 = load ptr, ptr %10, align 8, !tbaa !7
  %71 = getelementptr inbounds nuw %struct.kmac_data_st, ptr %70, i32 0, i32 5
  %72 = load i64, ptr %71, align 8, !tbaa !20
  %73 = icmp eq i64 %72, 0
  br i1 %73, label %74, label %78

74:                                               ; preds = %67
  call void @llvm.lifetime.start.p0(i64 80, ptr %18) #7
  call void @llvm.memcpy.p0.p0.i64(ptr align 16 %18, ptr align 16 @__const.kmac_init.cparams, i64 80, i1 false)
  %75 = load ptr, ptr %10, align 8, !tbaa !7
  %76 = getelementptr inbounds [2 x %struct.ossl_param_st], ptr %18, i64 0, i64 0
  %77 = call i32 @kmac_set_ctx_params(ptr noundef %75, ptr noundef %76)
  call void @llvm.lifetime.end.p0(i64 80, ptr %18) #7
  br label %78

78:                                               ; preds = %74, %67
  %79 = load ptr, ptr %10, align 8, !tbaa !7
  %80 = getelementptr inbounds nuw %struct.kmac_data_st, ptr %79, i32 0, i32 8
  %81 = getelementptr inbounds [516 x i8], ptr %80, i64 0, i64 0
  %82 = load ptr, ptr %10, align 8, !tbaa !7
  %83 = getelementptr inbounds nuw %struct.kmac_data_st, ptr %82, i32 0, i32 5
  %84 = load i64, ptr %83, align 8, !tbaa !20
  %85 = load i64, ptr %14, align 8, !tbaa !24
  %86 = call i32 @bytepad(ptr noundef null, ptr noundef %13, ptr noundef @kmac_string, i64 noundef 6, ptr noundef %81, i64 noundef %84, i64 noundef %85)
  %87 = icmp ne i32 %86, 0
  br i1 %87, label %89, label %88

88:                                               ; preds = %78
  call void @ERR_new()
  call void @ERR_set_debug(ptr noundef @.str.2, i32 noundef 348, ptr noundef @__func__.kmac_init)
  call void (i32, i32, ptr, ...) @ERR_set_error(i32 noundef 57, i32 noundef 786691, ptr noundef null)
  store i32 0, ptr %5, align 4
  store i32 1, ptr %17, align 4
  br label %127

89:                                               ; preds = %78
  %90 = load i64, ptr %13, align 8, !tbaa !24
  %91 = call noalias ptr @CRYPTO_malloc(i64 noundef %90, ptr noundef @.str.2, i32 noundef 351)
  store ptr %91, ptr %12, align 8, !tbaa !22
  %92 = load ptr, ptr %12, align 8, !tbaa !22
  %93 = icmp eq ptr %92, null
  br i1 %93, label %94, label %95

94:                                               ; preds = %89
  store i32 0, ptr %5, align 4
  store i32 1, ptr %17, align 4
  br label %127

95:                                               ; preds = %89
  %96 = load ptr, ptr %12, align 8, !tbaa !22
  %97 = load ptr, ptr %10, align 8, !tbaa !7
  %98 = getelementptr inbounds nuw %struct.kmac_data_st, ptr %97, i32 0, i32 8
  %99 = getelementptr inbounds [516 x i8], ptr %98, i64 0, i64 0
  %100 = load ptr, ptr %10, align 8, !tbaa !7
  %101 = getelementptr inbounds nuw %struct.kmac_data_st, ptr %100, i32 0, i32 5
  %102 = load i64, ptr %101, align 8, !tbaa !20
  %103 = load i64, ptr %14, align 8, !tbaa !24
  %104 = call i32 @bytepad(ptr noundef %96, ptr noundef null, ptr noundef @kmac_string, i64 noundef 6, ptr noundef %99, i64 noundef %102, i64 noundef %103)
  %105 = icmp ne i32 %104, 0
  br i1 %105, label %106, label %122

106:                                              ; preds = %95
  %107 = load ptr, ptr %11, align 8, !tbaa !27
  %108 = load ptr, ptr %12, align 8, !tbaa !22
  %109 = load i64, ptr %13, align 8, !tbaa !24
  %110 = call i32 @EVP_DigestUpdate(ptr noundef %107, ptr noundef %108, i64 noundef %109)
  %111 = icmp ne i32 %110, 0
  br i1 %111, label %112, label %122

112:                                              ; preds = %106
  %113 = load ptr, ptr %11, align 8, !tbaa !27
  %114 = load ptr, ptr %10, align 8, !tbaa !7
  %115 = getelementptr inbounds nuw %struct.kmac_data_st, ptr %114, i32 0, i32 7
  %116 = getelementptr inbounds [672 x i8], ptr %115, i64 0, i64 0
  %117 = load ptr, ptr %10, align 8, !tbaa !7
  %118 = getelementptr inbounds nuw %struct.kmac_data_st, ptr %117, i32 0, i32 4
  %119 = load i64, ptr %118, align 8, !tbaa !19
  %120 = call i32 @EVP_DigestUpdate(ptr noundef %113, ptr noundef %116, i64 noundef %119)
  %121 = icmp ne i32 %120, 0
  br label %122

122:                                              ; preds = %112, %106, %95
  %123 = phi i1 [ false, %106 ], [ false, %95 ], [ %121, %112 ]
  %124 = zext i1 %123 to i32
  store i32 %124, ptr %15, align 4, !tbaa !28
  %125 = load ptr, ptr %12, align 8, !tbaa !22
  call void @CRYPTO_free(ptr noundef %125, ptr noundef @.str.2, i32 noundef 358)
  %126 = load i32, ptr %15, align 4, !tbaa !28
  store i32 %126, ptr %5, align 4
  store i32 1, ptr %17, align 4
  br label %127

127:                                              ; preds = %122, %94, %88, %66, %58, %47, %40, %30
  call void @llvm.lifetime.end.p0(i64 4, ptr %16) #7
  call void @llvm.lifetime.end.p0(i64 4, ptr %15) #7
  call void @llvm.lifetime.end.p0(i64 8, ptr %14) #7
  call void @llvm.lifetime.end.p0(i64 8, ptr %13) #7
  call void @llvm.lifetime.end.p0(i64 8, ptr %12) #7
  call void @llvm.lifetime.end.p0(i64 8, ptr %11) #7
  call void @llvm.lifetime.end.p0(i64 8, ptr %10) #7
  %128 = load i32, ptr %5, align 4
  ret i32 %128
}