; Function Attrs: nounwind uwtable
define internal range(i32 0, 2) i32 @kmac_init(ptr noundef %0, ptr noundef captures(address_is_null) %1, i64 noundef %2, ptr noundef %3) #0 {
  %5 = alloca [2 x %struct.ossl_param_st], align 16
  %6 = getelementptr inbounds nuw i8, ptr %0, i64 8
  %7 = load ptr, ptr %6, align 8, !tbaa !14
  %8 = tail call i32 @ossl_prov_is_running() #7
  %.not = icmp eq i32 %8, 0
  br i1 %.not, label %80, label %9

9:                                                ; preds = %4
  %10 = tail call i32 @kmac_set_ctx_params(ptr noundef nonnull %0, ptr noundef %3)
  %.not34 = icmp eq i32 %10, 0
  br i1 %.not34, label %80, label %11

11:                                               ; preds = %9
  %.not35 = icmp eq ptr %1, null
  br i1 %.not35, label %14, label %12

12:                                               ; preds = %11
  %13 = tail call fastcc i32 @kmac_setkey(ptr noundef nonnull %0, ptr noundef nonnull %1, i64 noundef %2)
  %.not36 = icmp eq i32 %13, 0
  br i1 %.not36, label %80, label %19

14:                                               ; preds = %11
  %15 = getelementptr inbounds nuw i8, ptr %0, i64 48
  %16 = load i64, ptr %15, align 8, !tbaa !15
  %17 = icmp eq i64 %16, 0
  br i1 %17, label %18, label %19

18:                                               ; preds = %14
  tail call void @ERR_new() #7
  tail call void @ERR_set_debug(ptr noundef nonnull @.str.2, i32 noundef 323, ptr noundef nonnull @__func__.kmac_init) #7
  tail call void (i32, i32, ptr, ...) @ERR_set_error(i32 noundef 57, i32 noundef 114, ptr noundef null) #7
  br label %80

19:                                               ; preds = %14, %12
  %20 = load ptr, ptr %6, align 8, !tbaa !14
  %21 = getelementptr inbounds nuw i8, ptr %0, i64 16
  %22 = tail call ptr @ossl_prov_digest_md(ptr noundef nonnull %21) #7
  %23 = tail call i32 @EVP_DigestInit_ex(ptr noundef %20, ptr noundef %22, ptr noundef null) #7
  %.not37 = icmp eq i32 %23, 0
  br i1 %.not37, label %80, label %24

24:                                               ; preds = %19
  %25 = tail call ptr @ossl_prov_digest_md(ptr noundef nonnull %21) #7
  %26 = tail call i32 @EVP_MD_get_block_size(ptr noundef %25) #7
  %27 = icmp slt i32 %26, 1
  br i1 %27, label %28, label %29

28:                                               ; preds = %24
  tail call void @ERR_new() #7
  tail call void @ERR_set_debug(ptr noundef nonnull @.str.2, i32 noundef 332, ptr noundef nonnull @__func__.kmac_init) #7
  tail call void (i32, i32, ptr, ...) @ERR_set_error(i32 noundef 57, i32 noundef 166, ptr noundef null) #7
  br label %80

29:                                               ; preds = %24
  %30 = zext nneg i32 %26 to i64
  %31 = getelementptr inbounds nuw i8, ptr %0, i64 56
  %32 = load i64, ptr %31, align 8, !tbaa !16
  %33 = icmp eq i64 %32, 0
  br i1 %33, label %34, label %36

34:                                               ; preds = %29
  call void @llvm.lifetime.start.p0(i64 80, ptr nonnull %5) #7
  call void @llvm.memcpy.p0.p0.i64(ptr noundef nonnull align 16 dereferenceable(80) %5, ptr noundef nonnull align 16 dereferenceable(80) @__const.kmac_init.cparams, i64 80, i1 false)
  %35 = call i32 @kmac_set_ctx_params(ptr noundef nonnull %0, ptr noundef nonnull %5)
  call void @llvm.lifetime.end.p0(i64 80, ptr nonnull %5) #7
  %.pre = load i64, ptr %31, align 8, !tbaa !16
  br label %36

36:                                               ; preds = %29, %34
  %37 = phi i64 [ %32, %29 ], [ %.pre, %34 ]
  %38 = getelementptr inbounds nuw i8, ptr %0, i64 740
  %39 = shl i64 %37, 32
  %sext57.i = add i64 %39, 34359738368
  %40 = ashr exact i64 %sext57.i, 32
  %41 = add nsw i64 %30, -1
  %42 = add nsw i64 %40, %41
  %43 = urem i64 %42, %30
  %44 = sub nsw i64 %42, %43
  %45 = call noalias ptr @CRYPTO_malloc(i64 noundef %44, ptr noundef nonnull @.str.2, i32 noundef 351) #7
  %46 = icmp eq ptr %45, null
  br i1 %46, label %80, label %47

47:                                               ; preds = %36
  %48 = load i64, ptr %31, align 8, !tbaa !16
  %49 = icmp samesign ult i32 %26, 256
  br i1 %49, label %50, label %bytepad.exit, !prof !19

50:                                               ; preds = %47
  %51 = getelementptr inbounds nuw i8, ptr %45, i64 1
  store i8 1, ptr %45, align 1, !tbaa !20
  %52 = trunc nuw i32 %26 to i8
  %53 = getelementptr inbounds nuw i8, ptr %45, i64 2
  store i8 %52, ptr %51, align 1, !tbaa !20
  call void @llvm.memcpy.p0.p0.i64(ptr noundef nonnull align 1 dereferenceable(6) %53, ptr noundef nonnull align 1 dereferenceable(6) @kmac_string, i64 6, i1 false)
  %54 = getelementptr inbounds nuw i8, ptr %45, i64 8
  %.not44 = icmp eq i64 %48, 0
  br i1 %.not44, label %57, label %55

55:                                               ; preds = %50
  call void @llvm.memcpy.p0.p0.i64(ptr nonnull align 1 %54, ptr nonnull readonly align 1 %38, i64 %48, i1 false)
  %56 = getelementptr inbounds nuw i8, ptr %54, i64 %48
  br label %57

57:                                               ; preds = %55, %50
  %.0.i = phi ptr [ %56, %55 ], [ %54, %50 ]
  %.0.fr.i = freeze ptr %.0.i
  %58 = ptrtoint ptr %.0.fr.i to i64
  %59 = ptrtoint ptr %45 to i64
  %60 = sub i64 %58, %59
  %61 = trunc i64 %60 to i32
  %sext.i = shl i64 %60, 32
  %62 = ashr exact i64 %sext.i, 32
  %63 = add nsw i64 %62, %41
  %64 = urem i64 %63, %30
  %65 = sub nuw nsw i64 %63, %64
  %66 = trunc i64 %65 to i32
  %.not.i = icmp eq i32 %66, %61
  br i1 %.not.i, label %70, label %67

67:                                               ; preds = %57
  %68 = sub i64 %65, %60
  %sext53.i = shl i64 %68, 32
  %69 = ashr exact i64 %sext53.i, 32
  call void @llvm.memset.p0.i64(ptr align 1 %.0.fr.i, i8 0, i64 %69, i1 false)
  br label %70

70:                                               ; preds = %67, %57
  %71 = call i32 @EVP_DigestUpdate(ptr noundef %7, ptr noundef nonnull %45, i64 noundef %44) #7
  %.not40 = icmp eq i32 %71, 0
  br i1 %.not40, label %bytepad.exit, label %72

72:                                               ; preds = %70
  %73 = getelementptr inbounds nuw i8, ptr %0, i64 68
  %74 = getelementptr inbounds nuw i8, ptr %0, i64 48
  %75 = load i64, ptr %74, align 8, !tbaa !15
  %76 = call i32 @EVP_DigestUpdate(ptr noundef %7, ptr noundef nonnull %73, i64 noundef %75) #7
  %77 = icmp ne i32 %76, 0
  %78 = zext i1 %77 to i32
  br label %bytepad.exit

bytepad.exit:                                     ; preds = %47, %72, %70
  %79 = phi i32 [ 0, %70 ], [ %78, %72 ], [ 0, %47 ]
  call void @CRYPTO_free(ptr noundef nonnull %45, ptr noundef nonnull @.str.2, i32 noundef 358) #7
  br label %80

80:                                               ; preds = %36, %19, %12, %4, %9, %bytepad.exit, %28, %18
  %.0 = phi i32 [ 0, %28 ], [ %79, %bytepad.exit ], [ 0, %18 ], [ 0, %9 ], [ 0, %4 ], [ 0, %12 ], [ 0, %19 ], [ 0, %36 ]
  ret i32 %.0
}